target datalayout = "e-m:e-p270:32:32-p271:32:32-p272:64:64-i64:64-i128:128-f80:128-n8:16:32:64-S128"
target triple = "x86_64-pc-linux-gnu"

%struct.DdManager = type { %struct.DdNode, ptr, ptr, ptr, ptr, ptr, ptr, ptr, i32, i32, double, double, double, i32, i32, i32, i32, i32, i32, ptr, ptr, %struct.DdSubtable, i32, i32, i32, i32, i32, i32, i32, double, i32, i32, i32, ptr, i64, double, i32, ptr, ptr, ptr, ptr, ptr, ptr, ptr, i32, ptr, ptr, ptr, ptr, ptr, ptr, i32, i32, i32, double, i32, i32, i32, i32, double, double, i32, i32, i32, i32, i32, i32, i32, i32, i32, ptr, ptr, i32, i32, i32, i32, i32, i32, ptr, ptr, ptr, ptr, ptr, ptr, ptr, ptr, i32, i64, i64, i64, i32, i64, i64, double, double, double, double, double, double, i32, ptr, ptr, i64 }
%struct.DdNode = type { i32, i32, ptr, %union.anon, i64 }
%union.anon = type { %struct.DdChildren }
%struct.DdChildren = type { ptr, ptr }
%struct.DdSubtable = type { ptr, i32, i32, i32, i32, i32, i32, i32, i32, i32, i32, i32 }

@memOut = internal global i32 0, align 4

; Function Attrs: nounwind uwtable
define ptr @Cudd_SupersetHeavyBranch(ptr noundef %0, ptr noundef %1, i32 noundef %2, i32 noundef %3) #0 {
  %5 = alloca ptr, align 8
  %6 = alloca ptr, align 8
  %7 = alloca i32, align 4
  %8 = alloca i32, align 4
  %9 = alloca ptr, align 8
  %10 = alloca ptr, align 8
  store ptr %0, ptr %5, align 8
  store ptr %1, ptr %6, align 8
  store i32 %2, ptr %7, align 4
  store i32 %3, ptr %8, align 4
  %11 = load ptr, ptr %6, align 8
  %12 = ptrtoint ptr %11 to i64
  %13 = xor i64 %12, 1
  %14 = inttoptr i64 %13 to ptr
  store ptr %14, ptr %10, align 8
  store i32 0, ptr @memOut, align 4
  br label %15

15:                                               ; preds = %32, %4
  %16 = load ptr, ptr %5, align 8
  %17 = getelementptr inbounds %struct.DdManager, ptr %16, i32 0, i32 55
  store i32 0, ptr %17, align 8
  %18 = load ptr, ptr %5, align 8
  %19 = load ptr, ptr %10, align 8
  %20 = load i32, ptr %7, align 4
  %21 = load i32, ptr %8, align 4
  %22 = call ptr @cuddSubsetHeavyBranch(ptr noundef %18, ptr noundef %19, i32 noundef %20, i32 noundef %21)
  store ptr %22, ptr %9, align 8
  br label %23

23:                                               ; preds = %15
  %24 = load ptr, ptr %5, align 8
  %25 = getelementptr inbounds %struct.DdManager, ptr %24, i32 0, i32 55
  %26 = load i32, ptr %25, align 8
  %27 = icmp eq i32 %26, 1
  br i1 %27, label %28, label %32

28:                                               ; preds = %23
  %29 = load i32, ptr @memOut, align 4
  %30 = icmp ne i32 %29, 0
  %31 = xor i1 %30, true
  br label %32

32:                                               ; preds = %28, %23
  %33 = phi i1 [ false, %23 ], [ %31, %28 ]
  br i1 %33, label %15, label %34, !llvm.loop !12

34:                                               ; preds = %32
  %35 = load ptr, ptr %9, align 8
  %36 = ptrtoint ptr %35 to i64
  %37 = load ptr, ptr %9, align 8
  %38 = icmp ne ptr %37, null
  %39 = zext i1 %38 to i32
  %40 = sext i32 %39 to i64
  %41 = xor i64 %36, %40
  %42 = inttoptr i64 %41 to ptr
  ret ptr %42
}