; Function Attrs: nounwind uwtable
define ptr @Cudd_SupersetHeavyBranch(ptr noundef initializes((448, 452)) %0, ptr noundef %1, i32 noundef %2, i32 noundef %3) local_unnamed_addr #0 {
  %5 = ptrtoint ptr %1 to i64
  %6 = xor i64 %5, 1
  %7 = inttoptr i64 %6 to ptr
  store i1 false, ptr @memOut, align 4
  %8 = getelementptr inbounds nuw i8, ptr %0, i64 448
  br label %9

9:                                                ; preds = %9, %4
  store i32 0, ptr %8, align 8
  %10 = tail call ptr @cuddSubsetHeavyBranch(ptr noundef %0, ptr noundef %7, i32 noundef %2, i32 noundef %3)
  %11 = load i32, ptr %8, align 8
  %12 = icmp ne i32 %11, 1
  %.b = load i1, ptr @memOut, align 4
  %.not8 = select i1 %12, i1 true, i1 %.b
  br i1 %.not8, label %13, label %9, !llvm.loop !16

13:                                               ; preds = %9
  %14 = ptrtoint ptr %10 to i64
  %15 = icmp ne ptr %10, null
  %16 = zext i1 %15 to i64
  %17 = xor i64 %16, %14
  %18 = inttoptr i64 %17 to ptr
  ret ptr %18
}